target datalayout = "e-m:e-p270:32:32-p271:32:32-p272:64:64-i64:64-i128:128-f80:128-n8:16:32:64-S128"
target triple = "x86_64-pc-linux-gnu"

%struct.uv__allocator_t = type { ptr, ptr, ptr, ptr }

@uv__allocator = internal global %struct.uv__allocator_t { ptr @malloc, ptr @realloc, ptr @calloc, ptr @free }, align 8

; Function Attrs: nounwind uwtable
define hidden void @uv__free(ptr noundef %0) #0 {
  %2 = alloca ptr, align 8
  %3 = alloca i32, align 4
  store ptr %0, ptr %2, align 8
  call void @llvm.lifetime.start.p0(i64 4, ptr %3) #13
  %4 = call ptr @__errno_location() #15
  %5 = load i32, ptr %4, align 4
  store i32 %5, ptr %3, align 4
  %6 = load ptr, ptr getelementptr inbounds nuw (%struct.uv__allocator_t, ptr @uv__allocator, i32 0, i32 3), align 8
  %7 = load ptr, ptr %2, align 8
  call void %6(ptr noundef %7)
  %8 = load i32, ptr %3, align 4
  %9 = call ptr @__errno_location() #15
  store i32 %8, ptr %9, align 4
  call void @llvm.lifetime.end.p0(i64 4, ptr %3) #13
  ret void
}

; Function Attrs: nounwind uwtable
define hidden ptr @uv__realloc(ptr noundef %0, i64 noundef %1) #0 {
  %3 = alloca ptr, align 8
  %4 = alloca ptr, align 8
  %5 = alloca i64, align 8
  store ptr %0, ptr %4, align 8
  store i64 %1, ptr %5, align 8
  %6 = load i64, ptr %5, align 8
  %7 = icmp ugt i64 %6, 0
  br i1 %7, label %8, label %13

8:                                                ; preds = %2
  %9 = load ptr, ptr getelementptr inbounds nuw (%struct.uv__allocator_t, ptr @uv__allocator, i32 0, i32 1), align 8
  %10 = load ptr, ptr %4, align 8
  %11 = load i64, ptr %5, align 8
  %12 = call ptr %9(ptr noundef %10, i64 noundef %11)
  store ptr %12, ptr %3, align 8
  br label %15

13:                                               ; preds = %2
  %14 = load ptr, ptr %4, align 8
  call void @uv__free(ptr noundef %14)
  store ptr null, ptr %3, align 8
  br label %15

15:                                               ; preds = %13, %8
  %16 = load ptr, ptr %3, align 8
  ret ptr %16
}