; Function Attrs: nounwind uwtable
define hidden ptr @uv__realloc(ptr noundef %0, i64 noundef %1) local_unnamed_addr #0 {
  %.not = icmp eq i64 %1, 0
  br i1 %.not, label %6, label %3

3:                                                ; preds = %2
  %4 = load ptr, ptr @uv__allocator.1, align 8
  %5 = tail call ptr %4(ptr noundef %0, i64 noundef %1) #26
  br label %10

6:                                                ; preds = %2
  %7 = tail call ptr @__errno_location() #27
  %8 = load i32, ptr %7, align 4
  %9 = load ptr, ptr @uv__allocator.3, align 8
  tail call void %9(ptr noundef %0) #26
  store i32 %8, ptr %7, align 4
  br label %10

10:                                               ; preds = %6, %3
  %.0 = phi ptr [ %5, %3 ], [ null, %6 ]
  ret ptr %.0
}